target datalayout = "e-m:e-p270:32:32-p271:32:32-p272:64:64-i64:64-i128:128-f80:128-n8:16:32:64-S128"
target triple = "x86_64-pc-linux-gnu"

%struct.pos = type { [4 x [4 x i16]], [4 x i16], [4 x [4 x i8]], [4 x i32], [50 x [4 x i16]], [50 x i32], [50 x %struct.moveType], i32, i32, [4 x %struct.highCardType], [4 x %struct.highCardType] }
%struct.moveType = type { i32, i32, i32, i32 }
%struct.highCardType = type { i32, i32 }

@bitMapRank = external global [16 x i16], align 16
@_ZL9handDelta = internal constant [4 x i32] [i32 256, i32 16, i32 1, i32 0], align 16

; Function Attrs: mustprogress nounwind uwtable
define void @_Z5Make0P3posiPK8moveType(ptr noundef %0, i32 noundef %1, ptr noundef %2) #5 {
  %4 = alloca ptr, align 8
  %5 = alloca i32, align 4
  %6 = alloca ptr, align 8
  %7 = alloca i32, align 4
  %8 = alloca i32, align 4
  %9 = alloca i32, align 4
  store ptr %0, ptr %4, align 8
  store i32 %1, ptr %5, align 4
  store ptr %2, ptr %6, align 8
  %10 = load ptr, ptr %4, align 8
  %11 = getelementptr inbounds nuw %struct.pos, ptr %10, i32 0, i32 5
  %12 = load i32, ptr %5, align 4
  %13 = sext i32 %12 to i64
  %14 = getelementptr inbounds [50 x i32], ptr %11, i64 0, i64 %13
  %15 = load i32, ptr %14, align 4
  store i32 %15, ptr %7, align 4
  %16 = load ptr, ptr %6, align 8
  %17 = getelementptr inbounds nuw %struct.moveType, ptr %16, i32 0, i32 0
  %18 = load i32, ptr %17, align 4
  store i32 %18, ptr %8, align 4
  %19 = load ptr, ptr %6, align 8
  %20 = getelementptr inbounds nuw %struct.moveType, ptr %19, i32 0, i32 1
  %21 = load i32, ptr %20, align 4
  store i32 %21, ptr %9, align 4
  %22 = load i32, ptr %7, align 4
  %23 = load ptr, ptr %4, align 8
  %24 = getelementptr inbounds nuw %struct.pos, ptr %23, i32 0, i32 5
  %25 = load i32, ptr %5, align 4
  %26 = sub nsw i32 %25, 1
  %27 = sext i32 %26 to i64
  %28 = getelementptr inbounds [50 x i32], ptr %24, i64 0, i64 %27
  store i32 %22, ptr %28, align 4
  %29 = load ptr, ptr %6, align 8
  %30 = load ptr, ptr %4, align 8
  %31 = getelementptr inbounds nuw %struct.pos, ptr %30, i32 0, i32 6
  %32 = load i32, ptr %5, align 4
  %33 = sext i32 %32 to i64
  %34 = getelementptr inbounds [50 x %struct.moveType], ptr %31, i64 0, i64 %33
  call void @llvm.memcpy.p0.p0.i64(ptr align 4 %34, ptr align 4 %29, i64 16, i1 false)
  %35 = load i32, ptr %9, align 4
  %36 = sext i32 %35 to i64
  %37 = getelementptr inbounds [16 x i16], ptr @bitMapRank, i64 0, i64 %36
  %38 = load i16, ptr %37, align 2
  %39 = zext i16 %38 to i32
  %40 = xor i32 %39, -1
  %41 = load ptr, ptr %4, align 8
  %42 = getelementptr inbounds nuw %struct.pos, ptr %41, i32 0, i32 0
  %43 = load i32, ptr %7, align 4
  %44 = sext i32 %43 to i64
  %45 = getelementptr inbounds [4 x [4 x i16]], ptr %42, i64 0, i64 %44
  %46 = load i32, ptr %8, align 4
  %47 = sext i32 %46 to i64
  %48 = getelementptr inbounds [4 x i16], ptr %45, i64 0, i64 %47
  %49 = load i16, ptr %48, align 2
  %50 = zext i16 %49 to i32
  %51 = and i32 %50, %40
  %52 = trunc i32 %51 to i16
  store i16 %52, ptr %48, align 2
  %53 = load i32, ptr %9, align 4
  %54 = sext i32 %53 to i64
  %55 = getelementptr inbounds [16 x i16], ptr @bitMapRank, i64 0, i64 %54
  %56 = load i16, ptr %55, align 2
  %57 = zext i16 %56 to i32
  %58 = load ptr, ptr %4, align 8
  %59 = getelementptr inbounds nuw %struct.pos, ptr %58, i32 0, i32 1
  %60 = load i32, ptr %8, align 4
  %61 = sext i32 %60 to i64
  %62 = getelementptr inbounds [4 x i16], ptr %59, i64 0, i64 %61
  %63 = load i16, ptr %62, align 2
  %64 = zext i16 %63 to i32
  %65 = xor i32 %64, %57
  %66 = trunc i32 %65 to i16
  store i16 %66, ptr %62, align 2
  %67 = load i32, ptr %8, align 4
  %68 = sext i32 %67 to i64
  %69 = getelementptr inbounds [4 x i32], ptr @_ZL9handDelta, i64 0, i64 %68
  %70 = load i32, ptr %69, align 4
  %71 = load ptr, ptr %4, align 8
  %72 = getelementptr inbounds nuw %struct.pos, ptr %71, i32 0, i32 3
  %73 = load i32, ptr %7, align 4
  %74 = sext i32 %73 to i64
  %75 = getelementptr inbounds [4 x i32], ptr %72, i64 0, i64 %74
  %76 = load i32, ptr %75, align 4
  %77 = sub nsw i32 %76, %70
  store i32 %77, ptr %75, align 4
  %78 = load ptr, ptr %4, align 8
  %79 = getelementptr inbounds nuw %struct.pos, ptr %78, i32 0, i32 2
  %80 = load i32, ptr %7, align 4
  %81 = sext i32 %80 to i64
  %82 = getelementptr inbounds [4 x [4 x i8]], ptr %79, i64 0, i64 %81
  %83 = load i32, ptr %8, align 4
  %84 = sext i32 %83 to i64
  %85 = getelementptr inbounds [4 x i8], ptr %82, i64 0, i64 %84
  %86 = load i8, ptr %85, align 1
  %87 = add i8 %86, -1
  store i8 %87, ptr %85, align 1
  ret void
}