; Function Attrs: mustprogress nofree norecurse nosync nounwind willreturn memory(read, argmem: readwrite, inaccessiblemem: none) uwtable
define void @_Z5Make0P3posiPK8moveType(ptr nocapture noundef %0, i32 noundef %1, ptr nocapture noundef readonly %2) local_unnamed_addr #4 {
  %4 = getelementptr inbounds nuw i8, ptr %0, i64 472
  %5 = sext i32 %1 to i64
  %6 = getelementptr inbounds [50 x i32], ptr %4, i64 0, i64 %5
  %7 = load i32, ptr %6, align 4
  %8 = load i32, ptr %2, align 4
  %9 = getelementptr inbounds nuw i8, ptr %2, i64 4
  %10 = load i32, ptr %9, align 4
  %11 = add nsw i32 %1, -1
  %12 = sext i32 %11 to i64
  %13 = getelementptr inbounds [50 x i32], ptr %4, i64 0, i64 %12
  store i32 %7, ptr %13, align 4
  %14 = getelementptr inbounds nuw i8, ptr %0, i64 672
  %15 = getelementptr inbounds [50 x %struct.moveType], ptr %14, i64 0, i64 %5
  tail call void @llvm.memcpy.p0.p0.i64(ptr noundef nonnull align 4 dereferenceable(16) %15, ptr noundef nonnull align 4 dereferenceable(16) %2, i64 16, i1 false)
  %16 = sext i32 %10 to i64
  %17 = getelementptr inbounds [16 x i16], ptr @bitMapRank, i64 0, i64 %16
  %18 = load i16, ptr %17, align 2
  %19 = xor i16 %18, -1
  %20 = sext i32 %7 to i64
  %21 = sext i32 %8 to i64
  %22 = getelementptr inbounds [4 x [4 x i16]], ptr %0, i64 0, i64 %20, i64 %21
  %23 = load i16, ptr %22, align 2
  %24 = and i16 %23, %19
  store i16 %24, ptr %22, align 2
  %25 = load i16, ptr %17, align 2
  %26 = getelementptr inbounds nuw i8, ptr %0, i64 32
  %27 = getelementptr inbounds [4 x i16], ptr %26, i64 0, i64 %21
  %28 = load i16, ptr %27, align 2
  %29 = xor i16 %28, %25
  store i16 %29, ptr %27, align 2
  %30 = getelementptr inbounds [4 x i32], ptr @_ZL9handDelta, i64 0, i64 %21
  %31 = load i32, ptr %30, align 4
  %32 = getelementptr inbounds nuw i8, ptr %0, i64 56
  %33 = getelementptr inbounds [4 x i32], ptr %32, i64 0, i64 %20
  %34 = load i32, ptr %33, align 4
  %35 = sub nsw i32 %34, %31
  store i32 %35, ptr %33, align 4
  %36 = getelementptr inbounds nuw i8, ptr %0, i64 40
  %37 = getelementptr inbounds [4 x [4 x i8]], ptr %36, i64 0, i64 %20, i64 %21
  %38 = load i8, ptr %37, align 1
  %39 = add i8 %38, -1
  store i8 %39, ptr %37, align 1
  ret void
}